; ModuleID = '19/606.c'
source_filename = "19/606.c"
target datalayout = "e-m:e-p270:32:32-p271:32:32-p272:64:64-i64:64-f80:128-n8:16:32:64-S128"
target triple = "x86_64-pc-linux-gnu"

@.str = private unnamed_addr constant [5 x i8] c"%s%c\00", align 1
@.str.1 = private unnamed_addr constant [3 x i8] c"%s\00", align 1
@.str.2 = private unnamed_addr constant [2 x i8] c"\0A\00", align 1
@.str.3 = private unnamed_addr constant [2 x i8] c" \00", align 1

; Function Attrs: noinline nounwind uwtable
define dso_local void @main() #0 {
  %1 = alloca [1000 x [1000 x i8]], align 16
  %2 = alloca [100 x i8], align 16
  %3 = alloca [100 x i8], align 16
  %4 = alloca i8, align 1
  %5 = alloca i32, align 4
  %6 = alloca i32, align 4
  %7 = bitcast [1000 x [1000 x i8]]* %1 to i8*
  call void @llvm.memset.p0i8.i64(i8* align 16 %7, i8 0, i64 1000000, i1 false)
  %8 = bitcast i8* %7 to <{ <{ i8, [999 x i8] }>, [999 x <{ i8, [999 x i8] }>] }>*
  %9 = getelementptr inbounds <{ <{ i8, [999 x i8] }>, [999 x <{ i8, [999 x i8] }>] }>, <{ <{ i8, [999 x i8] }>, [999 x <{ i8, [999 x i8] }>] }>* %8, i32 0, i32 0
  %10 = getelementptr inbounds <{ i8, [999 x i8] }>, <{ i8, [999 x i8] }>* %9, i32 0, i32 0
  store i8 1, i8* %10, align 16
  store i32 0, i32* %6, align 4
  store i32 0, i32* %5, align 4
  br label %11

11:                                               ; preds = %23, %0
  %12 = load i32, i32* %5, align 4
  %13 = sext i32 %12 to i64
  %14 = getelementptr inbounds [1000 x [1000 x i8]], [1000 x [1000 x i8]]* %1, i64 0, i64 %13
  %15 = call i32 (i8*, ...) @__isoc99_scanf(i8* getelementptr inbounds ([5 x i8], [5 x i8]* @.str, i64 0, i64 0), [1000 x i8]* %14, i8* %4)
  %16 = load i32, i32* %6, align 4
  %17 = add nsw i32 %16, 1
  store i32 %17, i32* %6, align 4
  %18 = load i8, i8* %4, align 1
  %19 = sext i8 %18 to i32
  %20 = icmp eq i32 %19, 10
  br i1 %20, label %21, label %22

21:                                               ; preds = %11
  br label %26

22:                                               ; preds = %11
  br label %23

23:                                               ; preds = %22
  %24 = load i32, i32* %5, align 4
  %25 = add nsw i32 %24, 1
  store i32 %25, i32* %5, align 4
  br label %11

26:                                               ; preds = %21
  %27 = call i32 (i8*, ...) @__isoc99_scanf(i8* getelementptr inbounds ([3 x i8], [3 x i8]* @.str.1, i64 0, i64 0), [100 x i8]* %2)
  %28 = call i32 (i8*, ...) @__isoc99_scanf(i8* getelementptr inbounds ([3 x i8], [3 x i8]* @.str.1, i64 0, i64 0), [100 x i8]* %3)
  store i32 0, i32* %5, align 4
  br label %29

29:                                               ; preds = %60, %26
  %30 = load i32, i32* %5, align 4
  %31 = load i32, i32* %6, align 4
  %32 = icmp slt i32 %30, %31
  br i1 %32, label %33, label %63

33:                                               ; preds = %29
  %34 = load i32, i32* %5, align 4
  %35 = sext i32 %34 to i64
  %36 = getelementptr inbounds [1000 x [1000 x i8]], [1000 x [1000 x i8]]* %1, i64 0, i64 %35
  %37 = getelementptr inbounds [1000 x i8], [1000 x i8]* %36, i64 0, i64 0
  %38 = getelementptr inbounds [100 x i8], [100 x i8]* %2, i64 0, i64 0
  %39 = call i32 @strcmp(i8* %37, i8* %38) #4
  %40 = icmp eq i32 %39, 0
  br i1 %40, label %41, label %44

41:                                               ; preds = %33
  %42 = getelementptr inbounds [100 x i8], [100 x i8]* %3, i64 0, i64 0
  %43 = call i32 (i8*, ...) @printf(i8* getelementptr inbounds ([3 x i8], [3 x i8]* @.str.1, i64 0, i64 0), i8* %42)
  br label %50

44:                                               ; preds = %33
  %45 = load i32, i32* %5, align 4
  %46 = sext i32 %45 to i64
  %47 = getelementptr inbounds [1000 x [1000 x i8]], [1000 x [1000 x i8]]* %1, i64 0, i64 %46
  %48 = getelementptr inbounds [1000 x i8], [1000 x i8]* %47, i64 0, i64 0
  %49 = call i32 (i8*, ...) @printf(i8* getelementptr inbounds ([3 x i8], [3 x i8]* @.str.1, i64 0, i64 0), i8* %48)
  br label %50

50:                                               ; preds = %44, %41
  %51 = load i32, i32* %5, align 4
  %52 = load i32, i32* %6, align 4
  %53 = sub nsw i32 %52, 1
  %54 = icmp eq i32 %51, %53
  br i1 %54, label %55, label %57

55:                                               ; preds = %50
  %56 = call i32 (i8*, ...) @printf(i8* getelementptr inbounds ([2 x i8], [2 x i8]* @.str.2, i64 0, i64 0))
  br label %59

57:                                               ; preds = %50
  %58 = call i32 (i8*, ...) @printf(i8* getelementptr inbounds ([2 x i8], [2 x i8]* @.str.3, i64 0, i64 0))
  br label %59

59:                                               ; preds = %57, %55
  br label %60

60:                                               ; preds = %59
  %61 = load i32, i32* %5, align 4
  %62 = add nsw i32 %61, 1
  store i32 %62, i32* %5, align 4
  br label %29

63:                                               ; preds = %29
  ret void
}

; Function Attrs: argmemonly nounwind willreturn
declare void @llvm.memset.p0i8.i64(i8* nocapture writeonly, i8, i64, i1 immarg) #1

declare dso_local i32 @__isoc99_scanf(i8*, ...) #2

; Function Attrs: nounwind readonly
declare dso_local i32 @strcmp(i8*, i8*) #3

declare dso_local i32 @printf(i8*, ...) #2


!llvm.module.flags = !{!0}
!llvm.ident = !{!1}

!0 = !{i32 1, !"wchar_size", i32 4}
!1 = !{!"clang version 10.0.0-4ubuntu1 "}
